target datalayout = "e-m:e-p270:32:32-p271:32:32-p272:64:64-i64:64-i128:128-f80:128-n8:16:32:64-S128"
target triple = "x86_64-pc-linux-gnu"

%struct.hwloc_topology = type { i32, i32, i32, ptr, ptr, i64, [20 x i32], [20 x i32], i64, i64, i32, ptr, i64, ptr, i64, [6 x %struct.hwloc_special_level_s], ptr, ptr, %struct.hwloc_binding_hooks, %struct.hwloc_topology_support, %struct.hwloc_infos_s, ptr, ptr, i32, ptr, ptr, i32, i32, ptr, i32, i32, ptr, i32, i32, i32, [5 x float], i32, ptr, ptr, i32, i32, ptr, i32, %struct.hwloc_numanode_attr_s, i32, i32, ptr, i64, i32, ptr, ptr, ptr }
%struct.hwloc_special_level_s = type { i32, ptr, ptr, ptr }
%struct.hwloc_binding_hooks = type { ptr, ptr, ptr, ptr, ptr, ptr, ptr, ptr, ptr, ptr, ptr, ptr, ptr, ptr, ptr, ptr, ptr, ptr, ptr, ptr, ptr, ptr, ptr, ptr }
%struct.hwloc_topology_support = type { ptr, ptr, ptr, ptr }
%struct.hwloc_infos_s = type { ptr, i32, i32 }
%struct.hwloc_numanode_attr_s = type { i64, i32, ptr }
%struct.hwloc_internal_cpukind_s = type { ptr, i32, i32, i64, %struct.hwloc_infos_s }

; Function Attrs: nounwind uwtable
define i32 @hwloc_cpukinds_get_info(ptr noundef %0, i32 noundef %1, ptr noundef %2, ptr noundef %3, ptr noundef %4, i64 noundef %5) #0 {
  %7 = alloca i32, align 4
  %8 = alloca ptr, align 8
  %9 = alloca i32, align 4
  %10 = alloca ptr, align 8
  %11 = alloca ptr, align 8
  %12 = alloca ptr, align 8
  %13 = alloca i64, align 8
  %14 = alloca ptr, align 8
  %15 = alloca i32, align 4
  store ptr %0, ptr %8, align 8, !tbaa !3
  store i32 %1, ptr %9, align 4, !tbaa !35
  store ptr %2, ptr %10, align 8, !tbaa !64
  store ptr %3, ptr %11, align 8, !tbaa !97
  store ptr %4, ptr %12, align 8, !tbaa !98
  store i64 %5, ptr %13, align 8, !tbaa !44
  call void @llvm.lifetime.start.p0(i64 8, ptr %14) #14
  %16 = load i64, ptr %13, align 8, !tbaa !44
  %17 = icmp ne i64 %16, 0
  br i1 %17, label %18, label %20

18:                                               ; preds = %6
  %19 = call ptr @__errno_location() #18
  store i32 22, ptr %19, align 4, !tbaa !35
  store i32 -1, ptr %7, align 4
  store i32 1, ptr %15, align 4
  br label %59

20:                                               ; preds = %6
  %21 = load i32, ptr %9, align 4, !tbaa !35
  %22 = load ptr, ptr %8, align 8, !tbaa !3
  %23 = getelementptr inbounds nuw %struct.hwloc_topology, ptr %22, i32 0, i32 29
  %24 = load i32, ptr %23, align 8, !tbaa !33
  %25 = icmp uge i32 %21, %24
  br i1 %25, label %26, label %28

26:                                               ; preds = %20
  %27 = call ptr @__errno_location() #18
  store i32 2, ptr %27, align 4, !tbaa !35
  store i32 -1, ptr %7, align 4
  store i32 1, ptr %15, align 4
  br label %59

28:                                               ; preds = %20
  %29 = load ptr, ptr %8, align 8, !tbaa !3
  %30 = getelementptr inbounds nuw %struct.hwloc_topology, ptr %29, i32 0, i32 31
  %31 = load ptr, ptr %30, align 8, !tbaa !8
  %32 = load i32, ptr %9, align 4, !tbaa !35
  %33 = zext i32 %32 to i64
  %34 = getelementptr inbounds nuw %struct.hwloc_internal_cpukind_s, ptr %31, i64 %33
  store ptr %34, ptr %14, align 8, !tbaa !36
  %35 = load ptr, ptr %10, align 8, !tbaa !64
  %36 = icmp ne ptr %35, null
  br i1 %36, label %37, label %43

37:                                               ; preds = %28
  %38 = load ptr, ptr %10, align 8, !tbaa !64
  %39 = load ptr, ptr %14, align 8, !tbaa !36
  %40 = getelementptr inbounds nuw %struct.hwloc_internal_cpukind_s, ptr %39, i32 0, i32 0
  %41 = load ptr, ptr %40, align 8, !tbaa !37
  %42 = call i32 @hwloc_bitmap_copy(ptr noundef %38, ptr noundef %41)
  br label %43

43:                                               ; preds = %37, %28
  %44 = load ptr, ptr %11, align 8, !tbaa !97
  %45 = icmp ne ptr %44, null
  br i1 %45, label %46, label %51

46:                                               ; preds = %43
  %47 = load ptr, ptr %14, align 8, !tbaa !36
  %48 = getelementptr inbounds nuw %struct.hwloc_internal_cpukind_s, ptr %47, i32 0, i32 1
  %49 = load i32, ptr %48, align 8, !tbaa !54
  %50 = load ptr, ptr %11, align 8, !tbaa !97
  store i32 %49, ptr %50, align 4, !tbaa !35
  br label %51

51:                                               ; preds = %46, %43
  %52 = load ptr, ptr %12, align 8, !tbaa !98
  %53 = icmp ne ptr %52, null
  br i1 %53, label %54, label %58

54:                                               ; preds = %51
  %55 = load ptr, ptr %14, align 8, !tbaa !36
  %56 = getelementptr inbounds nuw %struct.hwloc_internal_cpukind_s, ptr %55, i32 0, i32 4
  %57 = load ptr, ptr %12, align 8, !tbaa !98
  store ptr %56, ptr %57, align 8, !tbaa !65
  br label %58

58:                                               ; preds = %54, %51
  store i32 0, ptr %7, align 4
  store i32 1, ptr %15, align 4
  br label %59

59:                                               ; preds = %58, %26, %18
  call void @llvm.lifetime.end.p0(i64 8, ptr %14) #14
  %60 = load i32, ptr %7, align 4
  ret i32 %60
}