; Function Attrs: nounwind uwtable
define range(i32 -1, 1) i32 @hwloc_cpukinds_get_info(ptr noundef readonly captures(none) %0, i32 noundef %1, ptr noundef %2, ptr noundef writeonly captures(address_is_null) %3, ptr noundef writeonly captures(address_is_null) %4, i64 noundef %5) local_unnamed_addr #1 {
  %.not = icmp eq i64 %5, 0
  br i1 %.not, label %9, label %7

7:                                                ; preds = %6
  %8 = tail call ptr @__errno_location() #27
  store i32 22, ptr %8, align 4, !tbaa !74
  br label %29

9:                                                ; preds = %6
  %10 = getelementptr inbounds nuw i8, ptr %0, i64 760
  %11 = load i32, ptr %10, align 8, !tbaa !3
  %.not18 = icmp ult i32 %1, %11
  br i1 %.not18, label %14, label %12

12:                                               ; preds = %9
  %13 = tail call ptr @__errno_location() #27
  store i32 2, ptr %13, align 4, !tbaa !74
  br label %29

14:                                               ; preds = %9
  %15 = getelementptr inbounds nuw i8, ptr %0, i64 768
  %16 = load ptr, ptr %15, align 8, !tbaa !31
  %17 = zext i32 %1 to i64
  %18 = getelementptr inbounds nuw %struct.hwloc_internal_cpukind_s, ptr %16, i64 %17
  %.not19 = icmp eq ptr %2, null
  br i1 %.not19, label %22, label %19

19:                                               ; preds = %14
  %20 = load ptr, ptr %18, align 8, !tbaa !32
  %21 = tail call i32 @hwloc_bitmap_copy(ptr noundef nonnull %2, ptr noundef %20) #22
  br label %22

22:                                               ; preds = %19, %14
  %.not20 = icmp eq ptr %3, null
  br i1 %.not20, label %26, label %23

23:                                               ; preds = %22
  %24 = getelementptr inbounds nuw i8, ptr %18, i64 8
  %25 = load i32, ptr %24, align 8, !tbaa !48
  store i32 %25, ptr %3, align 4, !tbaa !74
  br label %26

26:                                               ; preds = %23, %22
  %.not21 = icmp eq ptr %4, null
  br i1 %.not21, label %29, label %27

27:                                               ; preds = %26
  %28 = getelementptr inbounds nuw i8, ptr %18, i64 24
  store ptr %28, ptr %4, align 8, !tbaa !87
  br label %29

29:                                               ; preds = %26, %27, %12, %7
  %.0 = phi i32 [ -1, %7 ], [ -1, %12 ], [ 0, %27 ], [ 0, %26 ]
  ret i32 %.0
}